; Function Attrs: mustprogress uwtable
define hidden noundef ptr @_ZN7datalog24external_relation_plugin11mk_widen_fnERKNS_13relation_baseES3_PS2_(ptr noundef nonnull align 8 dereferenceable(48) %this, ptr nocapture noundef nonnull readonly align 8 dereferenceable(28) %tgt, ptr noundef nonnull readonly align 8 dereferenceable(28) %src, ptr noundef readonly %delta) unnamed_addr #3 align 2 {
entry:
  %m_plugin.i.i = getelementptr inbounds i8, ptr %tgt, i64 8
  %0 = load ptr, ptr %m_plugin.i.i, align 8
  %cmp.i = icmp eq ptr %0, %this
  %m_plugin.i.i3 = getelementptr inbounds i8, ptr %src, i64 8
  %1 = load ptr, ptr %m_plugin.i.i3, align 8
  %cmp.i4 = icmp eq ptr %1, %this
  %or.cond = select i1 %cmp.i, i1 %cmp.i4, i1 false
  br i1 %or.cond, label %lor.lhs.false3, label %return

lor.lhs.false3:                                   ; preds = %entry
  %tobool.not = icmp eq ptr %delta, null
  br i1 %tobool.not, label %if.end, label %land.lhs.true

land.lhs.true:                                    ; preds = %lor.lhs.false3
  %m_plugin.i.i5 = getelementptr inbounds i8, ptr %delta, i64 8
  %2 = load ptr, ptr %m_plugin.i.i5, align 8
  %cmp.i6 = icmp eq ptr %2, %this
  br i1 %cmp.i6, label %if.end, label %return

if.end:                                           ; preds = %land.lhs.true, %lor.lhs.false3
  %call5 = tail call noalias noundef ptr @_ZN6memory8allocateEm(i64 noundef 64)
  %3 = tail call ptr @__dynamic_cast(ptr nonnull %src, ptr nonnull @_ZTIN7datalog13relation_baseE, ptr nonnull @_ZTIN7datalog17external_relationE, i64 0) #17
  %4 = icmp eq ptr %3, null
  br i1 %4, label %dynamic_cast.bad_cast.i, label %_ZN7datalog24external_relation_plugin3getERKNS_13relation_baseE.exit

dynamic_cast.bad_cast.i:                          ; preds = %if.end
  tail call void @__cxa_bad_cast() #20
  unreachable

_ZN7datalog24external_relation_plugin3getERKNS_13relation_baseE.exit: ; preds = %if.end
  %m_rel.i = getelementptr inbounds i8, ptr %3, i64 32
  %5 = load ptr, ptr %m_rel.i, align 8
  %call2.i = tail call noundef ptr @_ZNK4expr8get_sortEv(ptr noundef nonnull align 4 dereferenceable(16) %5)
  tail call void @_ZN7datalog24external_relation_plugin8union_fnC2ERS0_iP4sort(ptr noundef nonnull align 8 dereferenceable(64) %call5, ptr noundef nonnull align 8 dereferenceable(48) %this, i32 noundef 5, ptr noundef %call2.i)
  br label %return

return:                                           ; preds = %entry, %land.lhs.true, %_ZN7datalog24external_relation_plugin3getERKNS_13relation_baseE.exit
  %retval.0 = phi ptr [ %call5, %_ZN7datalog24external_relation_plugin3getERKNS_13relation_baseE.exit ], [ null, %land.lhs.true ], [ null, %entry ]
  ret ptr %retval.0
}